target datalayout = "e-m:e-p270:32:32-p271:32:32-p272:64:64-i64:64-i128:128-f80:128-n8:16:32:64-S128"
target triple = "x86_64-unknown-linux-gnu"

%"struct.coro_rpc::protocol::coro_rpc_protocol::rpc_error" = type { i32, %"class.std::__cxx11::basic_string" }
%"class.std::__cxx11::basic_string" = type { %"struct.std::__cxx11::basic_string<char>::_Alloc_hider", i64, %union.anon.0 }
%"struct.std::__cxx11::basic_string<char>::_Alloc_hider" = type { ptr }
%union.anon.0 = type { i64, [8 x i8] }
%"class.std::allocator" = type { i8 }

@__dso_handle = external hidden global i8
@_ZN8coro_rpc15coro_rpc_client13connect_errorE = linkonce_odr dso_local global %"struct.coro_rpc::protocol::coro_rpc_protocol::rpc_error" zeroinitializer, comdat, align 8
@_ZGVN8coro_rpc15coro_rpc_client13connect_errorE = linkonce_odr dso_local global i64 0, comdat($_ZN8coro_rpc15coro_rpc_client13connect_errorE), align 8
@.str = private unnamed_addr constant [23 x i8] c"client has been closed\00", align 1

; Function Attrs: uwtable
define internal void @__cxx_global_var_init.5() #0 section ".text.startup" comdat($_ZN8coro_rpc15coro_rpc_client13connect_errorE) personality ptr @__gxx_personality_v0 {
entry:
  %ref.tmp = alloca %"class.std::allocator", align 1
  %exn.slot = alloca ptr, align 8
  %ehselector.slot = alloca i32, align 4
  %0 = load atomic i8, ptr @_ZGVN8coro_rpc15coro_rpc_client13connect_errorE acquire, align 8
  %guard.uninitialized = icmp eq i8 %0, 0
  br i1 %guard.uninitialized, label %init.check, label %init.end

init.check:                                       ; preds = %entry
  %1 = call i32 @__cxa_guard_acquire(ptr @_ZGVN8coro_rpc15coro_rpc_client13connect_errorE) #3
  %tobool = icmp ne i32 %1, 0
  br i1 %tobool, label %init, label %init.end

init:                                             ; preds = %init.check
  store i32 5, ptr @_ZN8coro_rpc15coro_rpc_client13connect_errorE, align 8
  call void @_ZNSaIcEC1Ev(ptr noundef nonnull align 1 dereferenceable(1) %ref.tmp) #3
  invoke void @_ZNSt7__cxx1112basic_stringIcSt11char_traitsIcESaIcEEC2IS3_EEPKcRKS3_(ptr noundef nonnull align 8 dereferenceable(32) getelementptr inbounds (%"struct.coro_rpc::protocol::coro_rpc_protocol::rpc_error", ptr @_ZN8coro_rpc15coro_rpc_client13connect_errorE, i32 0, i32 1), ptr noundef @.str, ptr noundef nonnull align 1 dereferenceable(1) %ref.tmp)
          to label %invoke.cont unwind label %lpad

invoke.cont:                                      ; preds = %init
  call void @_ZNSaIcED1Ev(ptr noundef nonnull align 1 dereferenceable(1) %ref.tmp) #3
  %2 = call i32 @__cxa_atexit(ptr @_ZN8coro_rpc8protocol17coro_rpc_protocol9rpc_errorD2Ev, ptr @_ZN8coro_rpc15coro_rpc_client13connect_errorE, ptr @__dso_handle) #3
  call void @__cxa_guard_release(ptr @_ZGVN8coro_rpc15coro_rpc_client13connect_errorE) #3
  br label %init.end

init.end:                                         ; preds = %invoke.cont, %init.check, %entry
  ret void

lpad:                                             ; preds = %init
  %3 = landingpad { ptr, i32 }
          cleanup
  %4 = extractvalue { ptr, i32 } %3, 0
  store ptr %4, ptr %exn.slot, align 8
  %5 = extractvalue { ptr, i32 } %3, 1
  store i32 %5, ptr %ehselector.slot, align 4
  call void @_ZNSaIcED1Ev(ptr noundef nonnull align 1 dereferenceable(1) %ref.tmp) #3
  call void @__cxa_guard_abort(ptr @_ZGVN8coro_rpc15coro_rpc_client13connect_errorE) #3
  br label %eh.resume

eh.resume:                                        ; preds = %lpad
  %exn = load ptr, ptr %exn.slot, align 8
  %sel = load i32, ptr %ehselector.slot, align 4
  %lpad.val = insertvalue { ptr, i32 } poison, ptr %exn, 0
  %lpad.val1 = insertvalue { ptr, i32 } %lpad.val, i32 %sel, 1
  resume { ptr, i32 } %lpad.val1
}